target datalayout = "e-m:e-p270:32:32-p271:32:32-p272:64:64-i64:64-i128:128-f80:128-n8:16:32:64-S128"
target triple = "x86_64-pc-linux-gnu"

%struct.struct_it8 = type { i32, i32, i32, [255 x %struct._Table], ptr, %struct._SubAllocator, i32, i32, i32, double, ptr, ptr, ptr, ptr, ptr, i32, [20 x ptr], i32, ptr, [128 x i8], ptr }
%struct._Table = type { [1024 x i8], i32, i32, i32, ptr, ptr, ptr }
%struct._SubAllocator = type { ptr, i32, i32 }
%struct.SAVESTREAM = type { ptr, ptr, ptr, i32, i32 }

@.str = private unnamed_addr constant [28 x i8] c"Table %d is out of sequence\00", align 1
@.str.5 = private unnamed_addr constant [3 x i8] c"wt\00", align 1
@.str.81 = private unnamed_addr constant [25 x i8] c"Table %d out of sequence\00", align 1

; Function Attrs: nounwind uwtable
define internal void @AllocTable(ptr noundef %0) #0 {
  %2 = alloca ptr, align 8
  %3 = alloca ptr, align 8
  store ptr %0, ptr %2, align 8
  %4 = load ptr, ptr %2, align 8
  %5 = getelementptr inbounds %struct.struct_it8, ptr %4, i32 0, i32 3
  %6 = getelementptr inbounds [255 x %struct._Table], ptr %5, i64 0, i64 0
  %7 = load ptr, ptr %2, align 8
  %8 = getelementptr inbounds %struct.struct_it8, ptr %7, i32 0, i32 0
  %9 = load i32, ptr %8, align 8
  %10 = zext i32 %9 to i64
  %11 = getelementptr inbounds %struct._Table, ptr %6, i64 %10
  store ptr %11, ptr %3, align 8
  %12 = load ptr, ptr %3, align 8
  %13 = getelementptr inbounds %struct._Table, ptr %12, i32 0, i32 4
  store ptr null, ptr %13, align 8
  %14 = load ptr, ptr %3, align 8
  %15 = getelementptr inbounds %struct._Table, ptr %14, i32 0, i32 5
  store ptr null, ptr %15, align 8
  %16 = load ptr, ptr %3, align 8
  %17 = getelementptr inbounds %struct._Table, ptr %16, i32 0, i32 6
  store ptr null, ptr %17, align 8
  %18 = load ptr, ptr %2, align 8
  %19 = getelementptr inbounds %struct.struct_it8, ptr %18, i32 0, i32 0
  %20 = load i32, ptr %19, align 8
  %21 = add i32 %20, 1
  store i32 %21, ptr %19, align 8
  ret void
}

; Function Attrs: nounwind uwtable
define internal ptr @GetTable(ptr noundef %0) #0 {
  %2 = alloca ptr, align 8
  %3 = alloca ptr, align 8
  store ptr %0, ptr %3, align 8
  %4 = load ptr, ptr %3, align 8
  %5 = getelementptr inbounds %struct.struct_it8, ptr %4, i32 0, i32 1
  %6 = load i32, ptr %5, align 4
  %7 = load ptr, ptr %3, align 8
  %8 = getelementptr inbounds %struct.struct_it8, ptr %7, i32 0, i32 0
  %9 = load i32, ptr %8, align 8
  %10 = icmp uge i32 %6, %9
  br i1 %10, label %11, label %20

11:                                               ; preds = %1
  %12 = load ptr, ptr %3, align 8
  %13 = load ptr, ptr %3, align 8
  %14 = getelementptr inbounds %struct.struct_it8, ptr %13, i32 0, i32 1
  %15 = load i32, ptr %14, align 4
  %16 = call i32 (ptr, ptr, ...) @SynError(ptr noundef %12, ptr noundef @.str.81, i32 noundef %15)
  %17 = load ptr, ptr %3, align 8
  %18 = getelementptr inbounds %struct.struct_it8, ptr %17, i32 0, i32 3
  %19 = getelementptr inbounds [255 x %struct._Table], ptr %18, i64 0, i64 0
  store ptr %19, ptr %2, align 8
  br label %29

20:                                               ; preds = %1
  %21 = load ptr, ptr %3, align 8
  %22 = getelementptr inbounds %struct.struct_it8, ptr %21, i32 0, i32 3
  %23 = getelementptr inbounds [255 x %struct._Table], ptr %22, i64 0, i64 0
  %24 = load ptr, ptr %3, align 8
  %25 = getelementptr inbounds %struct.struct_it8, ptr %24, i32 0, i32 1
  %26 = load i32, ptr %25, align 4
  %27 = zext i32 %26 to i64
  %28 = getelementptr inbounds %struct._Table, ptr %23, i64 %27
  store ptr %28, ptr %2, align 8
  br label %29

29:                                               ; preds = %20, %11
  %30 = load ptr, ptr %2, align 8
  ret ptr %30
}

; Function Attrs: nounwind uwtable
define hidden i32 @cmsIT8SetTable(ptr noundef %0, i32 noundef %1) #0 {
  %3 = alloca i32, align 4
  %4 = alloca ptr, align 8
  %5 = alloca i32, align 4
  %6 = alloca ptr, align 8
  store ptr %0, ptr %4, align 8
  store i32 %1, ptr %5, align 4
  %7 = load ptr, ptr %4, align 8
  store ptr %7, ptr %6, align 8
  %8 = load i32, ptr %5, align 4
  %9 = load ptr, ptr %6, align 8
  %10 = getelementptr inbounds %struct.struct_it8, ptr %9, i32 0, i32 0
  %11 = load i32, ptr %10, align 8
  %12 = icmp uge i32 %8, %11
  br i1 %12, label %13, label %26

13:                                               ; preds = %2
  %14 = load i32, ptr %5, align 4
  %15 = load ptr, ptr %6, align 8
  %16 = getelementptr inbounds %struct.struct_it8, ptr %15, i32 0, i32 0
  %17 = load i32, ptr %16, align 8
  %18 = icmp eq i32 %14, %17
  br i1 %18, label %19, label %21

19:                                               ; preds = %13
  %20 = load ptr, ptr %6, align 8
  call void @AllocTable(ptr noundef %20)
  br label %25

21:                                               ; preds = %13
  %22 = load ptr, ptr %6, align 8
  %23 = load i32, ptr %5, align 4
  %24 = call i32 (ptr, ptr, ...) @SynError(ptr noundef %22, ptr noundef @.str, i32 noundef %23)
  store i32 -1, ptr %3, align 4
  br label %31

25:                                               ; preds = %19
  br label %26

26:                                               ; preds = %25, %2
  %27 = load i32, ptr %5, align 4
  %28 = load ptr, ptr %6, align 8
  %29 = getelementptr inbounds %struct.struct_it8, ptr %28, i32 0, i32 1
  store i32 %27, ptr %29, align 4
  %30 = load i32, ptr %5, align 4
  store i32 %30, ptr %3, align 4
  br label %31

31:                                               ; preds = %26, %21
  %32 = load i32, ptr %3, align 4
  ret i32 %32
}

; Function Attrs: nounwind uwtable
define hidden i32 @cmsIT8SaveToFile(ptr noundef %0, ptr noundef %1) #0 {
  %3 = alloca i32, align 4
  %4 = alloca ptr, align 8
  %5 = alloca ptr, align 8
  %6 = alloca %struct.SAVESTREAM, align 8
  %7 = alloca i32, align 4
  %8 = alloca ptr, align 8
  %9 = alloca ptr, align 8
  store ptr %0, ptr %4, align 8
  store ptr %1, ptr %5, align 8
  %10 = load ptr, ptr %4, align 8
  store ptr %10, ptr %8, align 8
  call void @llvm.memset.p0.i64(ptr align 8 %6, i8 0, i64 32, i1 false)
  %11 = load ptr, ptr %5, align 8
  %12 = call noalias ptr @fopen64(ptr noundef %11, ptr noundef @.str.5)
  %13 = getelementptr inbounds %struct.SAVESTREAM, ptr %6, i32 0, i32 0
  store ptr %12, ptr %13, align 8
  %14 = getelementptr inbounds %struct.SAVESTREAM, ptr %6, i32 0, i32 0
  %15 = load ptr, ptr %14, align 8
  %16 = icmp ne ptr %15, null
  br i1 %16, label %18, label %17

17:                                               ; preds = %2
  store i32 0, ptr %3, align 4
  br label %63

18:                                               ; preds = %2
  store i32 0, ptr %7, align 4
  br label %19

19:                                               ; preds = %49, %18
  %20 = load i32, ptr %7, align 4
  %21 = load ptr, ptr %8, align 8
  %22 = getelementptr inbounds %struct.struct_it8, ptr %21, i32 0, i32 0
  %23 = load i32, ptr %22, align 8
  %24 = icmp ult i32 %20, %23
  br i1 %24, label %25, label %52

25:                                               ; preds = %19
  %26 = load ptr, ptr %4, align 8
  %27 = load i32, ptr %7, align 4
  %28 = call i32 @cmsIT8SetTable(ptr noundef %26, i32 noundef %27)
  %29 = icmp slt i32 %28, 0
  br i1 %29, label %30, label %31

30:                                               ; preds = %25
  br label %59

31:                                               ; preds = %25
  %32 = load ptr, ptr %8, align 8
  %33 = call ptr @GetTable(ptr noundef %32)
  store ptr %33, ptr %9, align 8
  %34 = load ptr, ptr %9, align 8
  %35 = getelementptr inbounds %struct._Table, ptr %34, i32 0, i32 6
  %36 = load ptr, ptr %35, align 8
  %37 = icmp eq ptr %36, null
  br i1 %37, label %38, label %39

38:                                               ; preds = %31
  br label %59

39:                                               ; preds = %31
  %40 = load ptr, ptr %9, align 8
  %41 = getelementptr inbounds %struct._Table, ptr %40, i32 0, i32 5
  %42 = load ptr, ptr %41, align 8
  %43 = icmp eq ptr %42, null
  br i1 %43, label %44, label %45

44:                                               ; preds = %39
  br label %59

45:                                               ; preds = %39
  %46 = load ptr, ptr %8, align 8
  call void @WriteHeader(ptr noundef %46, ptr noundef %6)
  %47 = load ptr, ptr %8, align 8
  call void @WriteDataFormat(ptr noundef %6, ptr noundef %47)
  %48 = load ptr, ptr %8, align 8
  call void @WriteData(ptr noundef %6, ptr noundef %48)
  br label %49

49:                                               ; preds = %45
  %50 = load i32, ptr %7, align 4
  %51 = add i32 %50, 1
  store i32 %51, ptr %7, align 4
  br label %19, !llvm.loop !16

52:                                               ; preds = %19
  %53 = getelementptr inbounds %struct.SAVESTREAM, ptr %6, i32 0, i32 0
  %54 = load ptr, ptr %53, align 8
  %55 = call i32 @fclose(ptr noundef %54)
  %56 = icmp ne i32 %55, 0
  br i1 %56, label %57, label %58

57:                                               ; preds = %52
  store i32 0, ptr %3, align 4
  br label %63

58:                                               ; preds = %52
  store i32 1, ptr %3, align 4
  br label %63

59:                                               ; preds = %44, %38, %30
  %60 = getelementptr inbounds %struct.SAVESTREAM, ptr %6, i32 0, i32 0
  %61 = load ptr, ptr %60, align 8
  %62 = call i32 @fclose(ptr noundef %61)
  store i32 0, ptr %3, align 4
  br label %63

63:                                               ; preds = %59, %58, %57, %17
  %64 = load i32, ptr %3, align 4
  ret i32 %64
}