; Function Attrs: nounwind uwtable
define hidden range(i32 0, 2) i32 @cmsIT8SaveToFile(ptr nocapture noundef %0, ptr nocapture noundef readonly %1) local_unnamed_addr #0 {
  %3 = alloca %struct.SAVESTREAM, align 8
  %4 = getelementptr inbounds i8, ptr %3, i64 8
  call void @llvm.memset.p0.i64(ptr noundef nonnull align 8 dereferenceable(32) %4, i8 0, i64 24, i1 false)
  %5 = tail call noalias ptr @fopen64(ptr noundef %1, ptr noundef nonnull @.str.5)
  store ptr %5, ptr %3, align 8
  %.not = icmp eq ptr %5, null
  br i1 %.not, label %32, label %.preheader

.preheader:                                       ; preds = %2
  %6 = load i32, ptr %0, align 8
  %.not18 = icmp eq i32 %6, 0
  br i1 %.not18, label %._crit_edge, label %cmsIT8SetTable.exit.lr.ph

cmsIT8SetTable.exit.lr.ph:                        ; preds = %.preheader
  %7 = getelementptr inbounds i8, ptr %0, i64 4
  %8 = getelementptr inbounds i8, ptr %0, i64 16
  br label %cmsIT8SetTable.exit

cmsIT8SetTable.exit:                              ; preds = %cmsIT8SetTable.exit.lr.ph, %23
  %9 = phi i32 [ %6, %cmsIT8SetTable.exit.lr.ph ], [ %25, %23 ]
  %10 = phi i32 [ 0, %cmsIT8SetTable.exit.lr.ph ], [ %24, %23 ]
  store i32 %10, ptr %7, align 4
  %exitcond = icmp eq i32 %10, -2147483648
  br i1 %exitcond, label %29, label %11

11:                                               ; preds = %cmsIT8SetTable.exit
  %.not.i15 = icmp ult i32 %10, %9
  br i1 %.not.i15, label %13, label %12

12:                                               ; preds = %11
  tail call void (ptr, ptr, ...) @SynError(ptr noundef nonnull %0, ptr noundef nonnull @.str.81, i32 noundef %10)
  br label %GetTable.exit

13:                                               ; preds = %11
  %14 = zext i32 %10 to i64
  %15 = getelementptr inbounds %struct._Table, ptr %8, i64 %14
  br label %GetTable.exit

GetTable.exit:                                    ; preds = %12, %13
  %.0.i16 = phi ptr [ %8, %12 ], [ %15, %13 ]
  %16 = getelementptr inbounds i8, ptr %.0.i16, i64 1056
  %17 = load ptr, ptr %16, align 8
  %18 = icmp eq ptr %17, null
  br i1 %18, label %29, label %19

19:                                               ; preds = %GetTable.exit
  %20 = getelementptr inbounds i8, ptr %.0.i16, i64 1048
  %21 = load ptr, ptr %20, align 8
  %22 = icmp eq ptr %21, null
  br i1 %22, label %29, label %23

23:                                               ; preds = %19
  call fastcc void @WriteHeader(ptr noundef nonnull %0, ptr noundef nonnull %3)
  call fastcc void @WriteDataFormat(ptr noundef nonnull %3, ptr noundef nonnull %0)
  call fastcc void @WriteData(ptr noundef nonnull %3, ptr noundef nonnull %0)
  %24 = add nuw i32 %10, 1
  %25 = load i32, ptr %0, align 8
  %26 = icmp ult i32 %24, %25
  br i1 %26, label %cmsIT8SetTable.exit, label %._crit_edge.loopexit, !llvm.loop !20

._crit_edge.loopexit:                             ; preds = %23
  %.pre = load ptr, ptr %3, align 8
  br label %._crit_edge

._crit_edge:                                      ; preds = %._crit_edge.loopexit, %.preheader
  %27 = phi ptr [ %.pre, %._crit_edge.loopexit ], [ %5, %.preheader ]
  %28 = tail call i32 @fclose(ptr noundef %27)
  %.not14 = icmp eq i32 %28, 0
  %. = zext i1 %.not14 to i32
  br label %32

29:                                               ; preds = %19, %GetTable.exit, %cmsIT8SetTable.exit
  %30 = load ptr, ptr %3, align 8
  %31 = tail call i32 @fclose(ptr noundef %30)
  br label %32

32:                                               ; preds = %._crit_edge, %2, %29
  %.0 = phi i32 [ 0, %29 ], [ 0, %2 ], [ %., %._crit_edge ]
  ret i32 %.0
}